; ModuleID = 'source-C-CXX/25/908.c'
source_filename = "source-C-CXX/25/908.c"
target datalayout = "e-m:e-p270:32:32-p271:32:32-p272:64:64-i64:64-f80:128-n8:16:32:64-S128"
target triple = "x86_64-pc-linux-gnu"

; Function Attrs: nounwind sspstrong uwtable
define dso_local i32 @main() local_unnamed_addr #0 {
  %1 = alloca [100 x i8], align 16
  %2 = alloca [100 x i8], align 16
  %3 = getelementptr inbounds [100 x i8], [100 x i8]* %1, i64 0, i64 0
  call void @llvm.lifetime.start.p0i8(i64 100, i8* nonnull %3) #5
  %4 = call i32 (i8*, ...) bitcast (i32 (...)* @gets to i32 (i8*, ...)*)(i8* nonnull %3) #5
  %5 = call i64 @strlen(i8* noundef nonnull %3) #6
  %6 = trunc i64 %5 to i32
  %7 = getelementptr inbounds [100 x i8], [100 x i8]* %2, i64 0, i64 0
  call void @llvm.lifetime.start.p0i8(i64 100, i8* nonnull %7) #5
  %8 = icmp sgt i32 %6, 0
  br i1 %8, label %9, label %35

9:                                                ; preds = %0, %31
  %10 = phi i32 [ %33, %31 ], [ 0, %0 ]
  %11 = phi i32 [ %32, %31 ], [ 0, %0 ]
  %12 = sext i32 %11 to i64
  %13 = getelementptr inbounds [100 x i8], [100 x i8]* %1, i64 0, i64 %12
  %14 = load i8, i8* %13, align 1, !tbaa !5
  %15 = icmp eq i8 %14, 32
  br i1 %15, label %21, label %16

16:                                               ; preds = %9
  %17 = sext i32 %10 to i64
  %18 = getelementptr inbounds [100 x i8], [100 x i8]* %2, i64 0, i64 %17
  store i8 %14, i8* %18, align 1, !tbaa !5
  %19 = add nsw i32 %10, 1
  %20 = add nsw i32 %11, 1
  br label %31

21:                                               ; preds = %9
  %22 = add nsw i32 %11, 1
  %23 = sext i32 %22 to i64
  %24 = getelementptr inbounds [100 x i8], [100 x i8]* %1, i64 0, i64 %23
  %25 = load i8, i8* %24, align 1, !tbaa !5
  %26 = icmp eq i8 %25, 32
  br i1 %26, label %31, label %27

27:                                               ; preds = %21
  %28 = sext i32 %10 to i64
  %29 = getelementptr inbounds [100 x i8], [100 x i8]* %2, i64 0, i64 %28
  store i8 32, i8* %29, align 1, !tbaa !5
  %30 = add nsw i32 %10, 1
  br label %31

31:                                               ; preds = %21, %27, %16
  %32 = phi i32 [ %20, %16 ], [ %22, %27 ], [ %22, %21 ]
  %33 = phi i32 [ %19, %16 ], [ %30, %27 ], [ %10, %21 ]
  %34 = icmp slt i32 %32, %6
  br i1 %34, label %9, label %35, !llvm.loop !8

35:                                               ; preds = %31, %0
  %36 = phi i32 [ 0, %0 ], [ %33, %31 ]
  %37 = sext i32 %36 to i64
  %38 = getelementptr inbounds [100 x i8], [100 x i8]* %2, i64 0, i64 %37
  store i8 0, i8* %38, align 1, !tbaa !5
  %39 = call i32 @puts(i8* nonnull %7)
  call void @llvm.lifetime.end.p0i8(i64 100, i8* nonnull %7) #5
  call void @llvm.lifetime.end.p0i8(i64 100, i8* nonnull %3) #5
  ret i32 0
}

; Function Attrs: argmemonly mustprogress nofree nosync nounwind willreturn
declare void @llvm.lifetime.start.p0i8(i64 immarg, i8* nocapture) #1

declare i32 @gets(...) local_unnamed_addr #2

; Function Attrs: argmemonly mustprogress nofree nounwind readonly willreturn
declare i64 @strlen(i8* nocapture) local_unnamed_addr #3

; Function Attrs: nofree nounwind
declare noundef i32 @puts(i8* nocapture noundef readonly) local_unnamed_addr #4

; Function Attrs: argmemonly mustprogress nofree nosync nounwind willreturn
declare void @llvm.lifetime.end.p0i8(i64 immarg, i8* nocapture) #1


!llvm.module.flags = !{!0, !1, !2, !3}
!llvm.ident = !{!4}

!0 = !{i32 1, !"wchar_size", i32 4}
!1 = !{i32 7, !"PIC Level", i32 2}
!2 = !{i32 7, !"PIE Level", i32 2}
!3 = !{i32 7, !"uwtable", i32 1}
!4 = !{!"clang version 13.0.0"}
!5 = !{!6, !6, i64 0}
!6 = !{!"omnipotent char", !7, i64 0}
!7 = !{!"Simple C/C++ TBAA"}
!8 = distinct !{!8, !9}
!9 = !{!"llvm.loop.mustprogress"}
